; Function Attrs: mustprogress uwtable
define dso_local void @_ZNK22FunctionInvocationUser15indented_outputERSoi(ptr noundef nonnull align 8 dereferenceable(65) %0, ptr noundef nonnull align 8 dereferenceable(8) %1, i32 noundef %2) unnamed_addr #4 align 2 personality ptr @__gxx_personality_v0 {
  %4 = alloca i32, align 4
  store i32 %2, ptr %4, align 4, !tbaa !145
  %5 = tail call noundef zeroext i1 @_ZNK18FunctionInvocation17has_simple_paramsEv(ptr noundef nonnull align 8 dereferenceable(56) %0)
  tail call void @_Z10output_tabRSoi(ptr noundef nonnull align 8 dereferenceable(8) %1, i32 noundef %2)
  br i1 %5, label %6, label %10

6:                                                ; preds = %3
  %7 = load ptr, ptr %0, align 8, !tbaa !30
  %8 = getelementptr inbounds nuw i8, ptr %7, i64 80
  %9 = load ptr, ptr %8, align 8
  tail call void %9(ptr noundef nonnull align 8 dereferenceable(65) %0, ptr noundef nonnull align 8 dereferenceable(8) %1)
  br label %40

10:                                               ; preds = %3
  %11 = getelementptr inbounds nuw i8, ptr %0, i64 56
  %12 = load ptr, ptr %11, align 8, !tbaa !36
  %13 = load ptr, ptr %12, align 8, !tbaa !170
  %14 = getelementptr inbounds nuw i8, ptr %12, i64 8
  %15 = load i64, ptr %14, align 8, !tbaa !171
  %16 = tail call noundef nonnull align 8 dereferenceable(8) ptr @_ZSt16__ostream_insertIcSt11char_traitsIcEERSt13basic_ostreamIT_T0_ES6_PKS3_l(ptr noundef nonnull align 8 dereferenceable(8) %1, ptr noundef %13, i64 noundef %15)
  tail call void @_Z8outputlnRSo(ptr noundef nonnull align 8 dereferenceable(8) %1)
  call void @_Z20output_open_encloserPKcRSoRi(ptr noundef nonnull @.str.7, ptr noundef nonnull align 8 dereferenceable(8) %1, ptr noundef nonnull align 4 dereferenceable(4) %4)
  %17 = getelementptr inbounds nuw i8, ptr %0, i64 16
  %18 = getelementptr inbounds nuw i8, ptr %0, i64 24
  %19 = load ptr, ptr %18, align 8, !tbaa !112
  %20 = load ptr, ptr %17, align 8, !tbaa !115
  %.not15 = icmp eq ptr %19, %20
  br i1 %.not15, label %._crit_edge, label %.lr.ph

.lr.ph:                                           ; preds = %10, %23
  %21 = phi ptr [ %34, %23 ], [ %20, %10 ]
  %.014 = phi i64 [ %32, %23 ], [ 0, %10 ]
  %.not = icmp eq i64 %.014, 0
  br i1 %.not, label %23, label %22

22:                                               ; preds = %.lr.ph
  call void @_Z8outputlnRSo(ptr noundef nonnull align 8 dereferenceable(8) %1)
  %.pre = load ptr, ptr %17, align 8, !tbaa !115
  br label %23

23:                                               ; preds = %22, %.lr.ph
  %24 = phi ptr [ %.pre, %22 ], [ %21, %.lr.ph ]
  %25 = getelementptr inbounds nuw ptr, ptr %24, i64 %.014
  %26 = load ptr, ptr %25, align 8, !tbaa !114
  %27 = load i32, ptr %4, align 4, !tbaa !145
  %28 = load ptr, ptr %26, align 8, !tbaa !30
  %29 = getelementptr inbounds nuw i8, ptr %28, i64 152
  %30 = load ptr, ptr %29, align 8
  call void %30(ptr noundef nonnull align 8 dereferenceable(24) %26, ptr noundef nonnull align 8 dereferenceable(8) %1, i32 noundef %27)
  %31 = call noundef nonnull align 8 dereferenceable(8) ptr @_ZSt16__ostream_insertIcSt11char_traitsIcEERSt13basic_ostreamIT_T0_ES6_PKS3_l(ptr noundef nonnull align 8 dereferenceable(8) %1, ptr noundef nonnull @.str.9, i64 noundef 1)
  %32 = add nuw i64 %.014, 1
  %33 = load ptr, ptr %18, align 8, !tbaa !112
  %34 = load ptr, ptr %17, align 8, !tbaa !115
  %35 = ptrtoint ptr %33 to i64
  %36 = ptrtoint ptr %34 to i64
  %37 = sub i64 %35, %36
  %38 = ashr exact i64 %37, 3
  %39 = icmp ult i64 %32, %38
  br i1 %39, label %.lr.ph, label %._crit_edge, !llvm.loop !176

._crit_edge:                                      ; preds = %23, %10
  call void @_Z21output_close_encloserPKcRSoRib(ptr noundef nonnull @.str.8, ptr noundef nonnull align 8 dereferenceable(8) %1, ptr noundef nonnull align 4 dereferenceable(4) %4, i1 noundef zeroext false)
  br label %40

40:                                               ; preds = %._crit_edge, %6
  ret void
}